; Function Attrs: mustprogress uwtable
define hidden void @_ZN4cvc58internal13FloatingPointC2ERKNS0_17FloatingPointSizeERKNS0_12RoundingModeERKNS0_9BitVectorEb(ptr noundef nonnull writeonly align 8 captures(none) dereferenceable(8) %0, ptr noundef nonnull align 4 dereferenceable(8) %1, ptr noundef nonnull align 4 dereferenceable(4) %2, ptr noundef nonnull align 8 dereferenceable(24) %3, i1 noundef zeroext %4) unnamed_addr #3 align 2 personality ptr @__gxx_personality_v0 {
  %6 = tail call noalias noundef nonnull dereferenceable(64) ptr @_Znwm(i64 noundef 64) #17
  invoke void @_ZN4cvc58internal20FloatingPointLiteralC1ERKNS0_17FloatingPointSizeERKNS0_12RoundingModeERKNS0_9BitVectorEb(ptr noundef nonnull align 8 dereferenceable(64) %6, ptr noundef nonnull align 4 dereferenceable(8) %1, ptr noundef nonnull align 4 dereferenceable(4) %2, ptr noundef nonnull align 8 dereferenceable(24) %3, i1 noundef zeroext %4)
          to label %7 unwind label %8

7:                                                ; preds = %5
  store ptr %6, ptr %0, align 8, !tbaa !3
  ret void

8:                                                ; preds = %5
  %9 = landingpad { ptr, i32 }
          cleanup
  tail call void @_ZdlPvm(ptr noundef nonnull %6, i64 noundef 64) #18
  resume { ptr, i32 } %9
}